target datalayout = "e-m:e-p270:32:32-p271:32:32-p272:64:64-i64:64-i128:128-f80:128-n8:16:32:64-S128"
target triple = "x86_64-pc-linux-gnu"

%struct.UConverter = type { ptr, ptr, ptr, ptr, ptr, ptr, ptr, i32, i8, i8, i8, i8, i8, [7 x i8], i32, i32, i32, i32, i8, i8, i8, i8, i8, i8, i8, i8, [8 x i8], [32 x i8], [2 x i16], [2 x i16], [32 x i16], i32, [19 x i16], [31 x i8], i8, i8, i8, i32 }

@.str.4 = private unnamed_addr constant [7 x i8] c"UTF-16\00", align 1
@.str.5 = private unnamed_addr constant [17 x i8] c"UTF-16,version=1\00", align 1
@.str.6 = private unnamed_addr constant [17 x i8] c"UTF-16,version=2\00", align 1

; Function Attrs: mustprogress nounwind uwtable
define internal noundef ptr @_ZL13_UTF16GetNamePK10UConverter(ptr noundef %0) #1 {
  %2 = alloca ptr, align 8
  %3 = alloca ptr, align 8
  store ptr %0, ptr %3, align 8, !tbaa !3
  %4 = load ptr, ptr %3, align 8, !tbaa !3
  %5 = getelementptr inbounds nuw %struct.UConverter, ptr %4, i32 0, i32 7
  %6 = load i32, ptr %5, align 8, !tbaa !9
  %7 = and i32 %6, 15
  %8 = icmp eq i32 %7, 0
  br i1 %8, label %9, label %10

9:                                                ; preds = %1
  store ptr @.str.4, ptr %2, align 8
  br label %18

10:                                               ; preds = %1
  %11 = load ptr, ptr %3, align 8, !tbaa !3
  %12 = getelementptr inbounds nuw %struct.UConverter, ptr %11, i32 0, i32 7
  %13 = load i32, ptr %12, align 8, !tbaa !9
  %14 = and i32 %13, 15
  %15 = icmp eq i32 %14, 1
  br i1 %15, label %16, label %17

16:                                               ; preds = %10
  store ptr @.str.5, ptr %2, align 8
  br label %18

17:                                               ; preds = %10
  store ptr @.str.6, ptr %2, align 8
  br label %18

18:                                               ; preds = %17, %16, %9
  %19 = load ptr, ptr %2, align 8
  ret ptr %19
}