; Function Attrs: mustprogress nofree norecurse nosync nounwind willreturn memory(argmem: read) uwtable
define internal noundef nonnull ptr @_ZL13_UTF16GetNamePK10UConverter(ptr noundef readonly captures(none) %0) #4 {
  %2 = getelementptr inbounds nuw i8, ptr %0, i64 56
  %3 = load i32, ptr %2, align 8, !tbaa !3
  %4 = and i32 %3, 15
  %switch.selectcmp = icmp eq i32 %4, 1
  %switch.select = select i1 %switch.selectcmp, ptr @.str.5, ptr @.str.6
  %switch.selectcmp4 = icmp eq i32 %4, 0
  %switch.select5 = select i1 %switch.selectcmp4, ptr @.str.4, ptr %switch.select
  ret ptr %switch.select5
}